target datalayout = "e-m:e-p270:32:32-p271:32:32-p272:64:64-i64:64-i128:128-f80:128-n8:16:32:64-S128"
target triple = "x86_64-pc-linux-gnu"

%"class.euf::th_euf_solver" = type <{ %"class.euf::th_solver", ptr, %class.ptr_vector, %class.svector.3, i32, [4 x i8] }>
%"class.euf::th_solver" = type { %"class.sat::extension", %"class.euf::th_model_builder", %"class.euf::th_decompile", %"class.euf::th_internalizer", ptr }
%"class.sat::extension" = type { ptr, i8, i32, %class.symbol, ptr }
%class.symbol = type { ptr }
%"class.euf::th_model_builder" = type { ptr }
%"class.euf::th_decompile" = type { ptr }
%"class.euf::th_internalizer" = type { ptr, %class.ptr_vector, %class.svector.1 }
%class.svector.1 = type { %class.vector.2 }
%class.vector.2 = type { ptr }
%class.ptr_vector = type { %class.vector.0 }
%class.vector.0 = type { ptr }
%class.svector.3 = type { %class.vector.4 }
%class.vector.4 = type { ptr }

; Function Attrs: mustprogress uwtable
define linkonce_odr hidden void @_ZN3euf13th_euf_solver10force_pushEv(ptr noundef nonnull align 8 dereferenceable(108) %0) #4 comdat align 2 {
  %2 = alloca ptr, align 8
  store ptr %0, ptr %2, align 8, !tbaa !88
  %3 = load ptr, ptr %2, align 8
  br label %4

4:                                                ; preds = %12, %1
  %5 = getelementptr inbounds nuw %"class.euf::th_euf_solver", ptr %3, i32 0, i32 4
  %6 = load i32, ptr %5, align 8, !tbaa !90
  %7 = icmp ugt i32 %6, 0
  br i1 %7, label %8, label %16

8:                                                ; preds = %4
  %9 = load ptr, ptr %3, align 8, !tbaa !50
  %10 = getelementptr inbounds ptr, ptr %9, i64 64
  %11 = load ptr, ptr %10, align 8
  call void %11(ptr noundef nonnull align 8 dereferenceable(108) %3)
  br label %12

12:                                               ; preds = %8
  %13 = getelementptr inbounds nuw %"class.euf::th_euf_solver", ptr %3, i32 0, i32 4
  %14 = load i32, ptr %13, align 8, !tbaa !90
  %15 = add i32 %14, -1
  store i32 %15, ptr %13, align 8, !tbaa !90
  br label %4, !llvm.loop !91

16:                                               ; preds = %4
  ret void
}

; Function Attrs: mustprogress uwtable
define hidden void @_ZN2bv6solver11internalizeEP4expr(ptr noundef nonnull align 8 dereferenceable(640) %0, ptr noundef %1) unnamed_addr #4 align 2 {
  %3 = alloca ptr, align 8
  %4 = alloca ptr, align 8
  store ptr %0, ptr %3, align 8, !tbaa !3
  store ptr %1, ptr %4, align 8, !tbaa !93
  %5 = load ptr, ptr %3, align 8
  call void @_ZN3euf13th_euf_solver10force_pushEv(ptr noundef nonnull align 8 dereferenceable(108) %5)
  %6 = getelementptr inbounds i8, ptr %5, i64 48
  %7 = getelementptr inbounds nuw %"class.euf::th_solver", ptr %5, i32 0, i32 4
  %8 = load ptr, ptr %7, align 8, !tbaa !96
  %9 = load ptr, ptr %4, align 8, !tbaa !93
  %10 = call noundef zeroext i1 @_ZN3euf15th_internalizer9visit_recER11ast_managerP4exprbb(ptr noundef nonnull align 8 dereferenceable(24) %6, ptr noundef nonnull align 8 dereferenceable(976) %8, ptr noundef %9, i1 noundef zeroext false, i1 noundef zeroext false)
  ret void
}